target datalayout = "e-m:e-p270:32:32-p271:32:32-p272:64:64-i64:64-i128:128-f80:128-n8:16:32:64-S128"
target triple = "x86_64-pc-linux-gnu"

%struct.AVStream = type { ptr, i32, i32, ptr, ptr, %struct.AVRational, i64, i64, i64, i32, i32, %struct.AVRational, ptr, %struct.AVRational, %struct.AVPacket, i32, %struct.AVRational, i32 }
%struct.AVPacket = type { ptr, i64, i64, ptr, i32, i32, i32, ptr, i32, i64, i64, ptr, ptr, %struct.AVRational }
%struct.AVRational = type { i32, i32 }
%struct.AVCodecParameters = type { i32, i32, i32, ptr, i32, ptr, i32, i32, i64, i32, i32, i32, i32, i32, i32, %struct.AVRational, %struct.AVRational, i32, i32, i32, i32, i32, i32, i32, %struct.AVChannelLayout, i32, i32, i32, i32, i32, i32 }
%struct.AVChannelLayout = type { i32, i32, %union.anon, ptr }
%union.anon = type { i64 }
%struct.AVPacketSideData = type { ptr, i64, i32 }
%struct.AVReplayGain = type { i32, i32, i32, i32 }

; Function Attrs: nounwind uwtable
define i32 @ff_replaygain_export_raw(ptr noundef %0, i32 noundef %1, i32 noundef %2, i32 noundef %3, i32 noundef %4) #0 {
  %6 = alloca i32, align 4
  %7 = alloca ptr, align 8
  %8 = alloca i32, align 4
  %9 = alloca i32, align 4
  %10 = alloca i32, align 4
  %11 = alloca i32, align 4
  %12 = alloca ptr, align 8
  %13 = alloca ptr, align 8
  %14 = alloca i32, align 4
  store ptr %0, ptr %7, align 8, !tbaa !4
  store i32 %1, ptr %8, align 4, !tbaa !9
  store i32 %2, ptr %9, align 4, !tbaa !9
  store i32 %3, ptr %10, align 4, !tbaa !9
  store i32 %4, ptr %11, align 4, !tbaa !9
  call void @llvm.lifetime.start.p0(i64 8, ptr %12) #7
  call void @llvm.lifetime.start.p0(i64 8, ptr %13) #7
  %15 = load i32, ptr %8, align 4, !tbaa !9
  %16 = icmp eq i32 %15, -2147483648
  br i1 %16, label %17, label %21

17:                                               ; preds = %5
  %18 = load i32, ptr %10, align 4, !tbaa !9
  %19 = icmp eq i32 %18, -2147483648
  br i1 %19, label %20, label %21

20:                                               ; preds = %17
  store i32 0, ptr %6, align 4
  store i32 1, ptr %14, align 4
  br label %50

21:                                               ; preds = %17, %5
  %22 = load ptr, ptr %7, align 8, !tbaa !4
  %23 = getelementptr inbounds nuw %struct.AVStream, ptr %22, i32 0, i32 3
  %24 = load ptr, ptr %23, align 8, !tbaa !11
  %25 = getelementptr inbounds nuw %struct.AVCodecParameters, ptr %24, i32 0, i32 5
  %26 = load ptr, ptr %7, align 8, !tbaa !4
  %27 = getelementptr inbounds nuw %struct.AVStream, ptr %26, i32 0, i32 3
  %28 = load ptr, ptr %27, align 8, !tbaa !11
  %29 = getelementptr inbounds nuw %struct.AVCodecParameters, ptr %28, i32 0, i32 6
  %30 = call ptr @av_packet_side_data_new(ptr noundef %25, ptr noundef %29, i32 noundef 4, i64 noundef 16, i32 noundef 0)
  store ptr %30, ptr %12, align 8, !tbaa !22
  %31 = load ptr, ptr %12, align 8, !tbaa !22
  %32 = icmp ne ptr %31, null
  br i1 %32, label %34, label %33

33:                                               ; preds = %21
  store i32 -12, ptr %6, align 4
  store i32 1, ptr %14, align 4
  br label %50

34:                                               ; preds = %21
  %35 = load ptr, ptr %12, align 8, !tbaa !22
  %36 = getelementptr inbounds nuw %struct.AVPacketSideData, ptr %35, i32 0, i32 0
  %37 = load ptr, ptr %36, align 8, !tbaa !23
  store ptr %37, ptr %13, align 8, !tbaa !25
  %38 = load i32, ptr %8, align 4, !tbaa !9
  %39 = load ptr, ptr %13, align 8, !tbaa !25
  %40 = getelementptr inbounds nuw %struct.AVReplayGain, ptr %39, i32 0, i32 0
  store i32 %38, ptr %40, align 4, !tbaa !27
  %41 = load i32, ptr %9, align 4, !tbaa !9
  %42 = load ptr, ptr %13, align 8, !tbaa !25
  %43 = getelementptr inbounds nuw %struct.AVReplayGain, ptr %42, i32 0, i32 1
  store i32 %41, ptr %43, align 4, !tbaa !29
  %44 = load i32, ptr %10, align 4, !tbaa !9
  %45 = load ptr, ptr %13, align 8, !tbaa !25
  %46 = getelementptr inbounds nuw %struct.AVReplayGain, ptr %45, i32 0, i32 2
  store i32 %44, ptr %46, align 4, !tbaa !30
  %47 = load i32, ptr %11, align 4, !tbaa !9
  %48 = load ptr, ptr %13, align 8, !tbaa !25
  %49 = getelementptr inbounds nuw %struct.AVReplayGain, ptr %48, i32 0, i32 3
  store i32 %47, ptr %49, align 4, !tbaa !31
  store i32 0, ptr %6, align 4
  store i32 1, ptr %14, align 4
  br label %50

50:                                               ; preds = %34, %33, %20
  call void @llvm.lifetime.end.p0(i64 8, ptr %13) #7
  call void @llvm.lifetime.end.p0(i64 8, ptr %12) #7
  %51 = load i32, ptr %6, align 4
  ret i32 %51
}