; Function Attrs: nounwind uwtable
define range(i32 -12, 1) i32 @ff_replaygain_export_raw(ptr noundef readonly captures(none) %0, i32 noundef %1, i32 noundef %2, i32 noundef %3, i32 noundef %4) local_unnamed_addr #0 {
  %6 = icmp eq i32 %1, -2147483648
  %7 = icmp eq i32 %3, -2147483648
  %or.cond = and i1 %6, %7
  br i1 %or.cond, label %19, label %8

8:                                                ; preds = %5
  %9 = getelementptr inbounds nuw i8, ptr %0, i64 16
  %10 = load ptr, ptr %9, align 8, !tbaa !4
  %11 = getelementptr inbounds nuw i8, ptr %10, i64 32
  %12 = getelementptr inbounds nuw i8, ptr %10, i64 40
  %13 = tail call ptr @av_packet_side_data_new(ptr noundef nonnull %11, ptr noundef nonnull %12, i32 noundef 4, i64 noundef 16, i32 noundef 0) #6
  %.not = icmp eq ptr %13, null
  br i1 %.not, label %19, label %14

14:                                               ; preds = %8
  %15 = load ptr, ptr %13, align 8, !tbaa !19
  store i32 %1, ptr %15, align 4, !tbaa !21
  %16 = getelementptr inbounds nuw i8, ptr %15, i64 4
  store i32 %2, ptr %16, align 4, !tbaa !23
  %17 = getelementptr inbounds nuw i8, ptr %15, i64 8
  store i32 %3, ptr %17, align 4, !tbaa !24
  %18 = getelementptr inbounds nuw i8, ptr %15, i64 12
  store i32 %4, ptr %18, align 4, !tbaa !25
  br label %19

19:                                               ; preds = %8, %5, %14
  %.0 = phi i32 [ 0, %14 ], [ 0, %5 ], [ -12, %8 ]
  ret i32 %.0
}